#include <math.h>
#include <stdio.h>
#include <stdlib.h>
#include <string.h>

main()
{
      int i,j,n;
      scanf("%d",&n);
      int a[20000];
      for(i=0;i<n;i++)
      {
                      scanf("%d",&a[i]);
                      }
      printf("%d",a[0]);
      for(i=1;i<n;i++)
      {
                      int k;
                      k=0;
                      for(j=0;j<i;j++)
                      {
                                      if(a[j]!=a[i]) k++;
                                      else break;
                                      }
                                      if(k==i) printf(" %d",a[i]);
                      }
      getchar();getchar();getchar();getchar();getchar();
      } 
